ccopy_reg
_reconstructor
p0
(cnltk.probability
ELEProbDist
p1
c__builtin__
object
p2
Ntp3
Rp4
(dp5
S'_gamma'
p6
F0.5
sS'_N'
p7
I10000
sS'_freqdist'
p8
cnltk.probability
FreqDist
p9
((dp10
S'subj'
p11
I5000
sS'obj'
p12
I5000
stp13
Rp14
sS'_bins'
p15
I2
sS'_divisor'
p16
F10001.0
sb.